target datalayout = "e-m:e-p270:32:32-p271:32:32-p272:64:64-i64:64-i128:128-f80:128-n8:16:32:64-S128"
target triple = "x86_64-pc-linux-gnu"

%struct.SDL_HIDAPI_Device = type { ptr, ptr, ptr, ptr, i16, i16, i16, ptr, %struct.SDL_GUID, i32, i32, i32, i32, i16, i16, i8, i32, i32, i32, ptr, ptr, ptr, ptr, %struct.SDL_AtomicInt, i32, ptr, i8, i8, i8, ptr, i32, ptr, ptr }
%struct.SDL_GUID = type { [16 x i8] }
%struct.SDL_AtomicInt = type { i32 }
%struct.SDL_Driver8BitDo_Context = type { i8, i8, i8, i8, i8, i8, i8, i8, i8, [6 x i8], i16, i16, float, float, [64 x i8], i64 }
%struct.SDL_Joystick = type { i32, ptr, ptr, ptr, %struct.SDL_GUID, i16, i64, i8, i8, i32, ptr, i32, ptr, i32, ptr, i32, ptr, i32, ptr, i32, i32, ptr, i16, i16, i64, i64, i16, i16, i64, i64, i8, i8, i8, i64, i8, i32, i32, i32, i8, i32, ptr, i32, ptr, [3 x [3 x float]], i64, ptr, ptr, i32, i32, ptr }

; Function Attrs: nounwind uwtable
define internal zeroext i1 @HIDAPI_Driver8BitDo_OpenJoystick(ptr noundef %0, ptr noundef %1) #0 {
  %3 = alloca ptr, align 8
  %4 = alloca ptr, align 8
  %5 = alloca ptr, align 8
  store ptr %0, ptr %3, align 8
  store ptr %1, ptr %4, align 8
  call void @llvm.lifetime.start.p0(i64 8, ptr %5) #6
  %6 = load ptr, ptr %3, align 8
  %7 = getelementptr inbounds nuw %struct.SDL_HIDAPI_Device, ptr %6, i32 0, i32 20
  %8 = load ptr, ptr %7, align 8
  store ptr %8, ptr %5, align 8
  call void @SDL_AssertJoysticksLocked()
  %9 = load ptr, ptr %5, align 8
  %10 = getelementptr inbounds nuw %struct.SDL_Driver8BitDo_Context, ptr %9, i32 0, i32 14
  %11 = getelementptr inbounds [64 x i8], ptr %10, i64 0, i64 0
  call void @llvm.memset.p0.i64(ptr align 4 %11, i8 0, i64 64, i1 false)
  %12 = load ptr, ptr %3, align 8
  %13 = getelementptr inbounds nuw %struct.SDL_HIDAPI_Device, ptr %12, i32 0, i32 5
  %14 = load i16, ptr %13, align 2
  %15 = zext i16 %14 to i32
  %16 = icmp eq i32 %15, 24579
  br i1 %16, label %29, label %17

17:                                               ; preds = %2
  %18 = load ptr, ptr %3, align 8
  %19 = getelementptr inbounds nuw %struct.SDL_HIDAPI_Device, ptr %18, i32 0, i32 5
  %20 = load i16, ptr %19, align 2
  %21 = zext i16 %20 to i32
  %22 = icmp eq i32 %21, 24582
  br i1 %22, label %29, label %23

23:                                               ; preds = %17
  %24 = load ptr, ptr %3, align 8
  %25 = getelementptr inbounds nuw %struct.SDL_HIDAPI_Device, ptr %24, i32 0, i32 5
  %26 = load i16, ptr %25, align 2
  %27 = zext i16 %26 to i32
  %28 = icmp eq i32 %27, 24594
  br i1 %28, label %29, label %32

29:                                               ; preds = %23, %17, %2
  %30 = load ptr, ptr %4, align 8
  %31 = getelementptr inbounds nuw %struct.SDL_Joystick, ptr %30, i32 0, i32 15
  store i32 15, ptr %31, align 8
  br label %35

32:                                               ; preds = %23
  %33 = load ptr, ptr %4, align 8
  %34 = getelementptr inbounds nuw %struct.SDL_Joystick, ptr %33, i32 0, i32 15
  store i32 11, ptr %34, align 8
  br label %35

35:                                               ; preds = %32, %29
  %36 = load ptr, ptr %4, align 8
  %37 = getelementptr inbounds nuw %struct.SDL_Joystick, ptr %36, i32 0, i32 9
  store i32 6, ptr %37, align 4
  %38 = load ptr, ptr %4, align 8
  %39 = getelementptr inbounds nuw %struct.SDL_Joystick, ptr %38, i32 0, i32 13
  store i32 1, ptr %39, align 8
  %40 = load ptr, ptr %5, align 8
  %41 = getelementptr inbounds nuw %struct.SDL_Driver8BitDo_Context, ptr %40, i32 0, i32 0
  %42 = load i8, ptr %41, align 8, !range !6, !noundef !7
  %43 = trunc i8 %42 to i1
  br i1 %43, label %44, label %51

44:                                               ; preds = %35
  %45 = load ptr, ptr %4, align 8
  call void @SDL_PrivateJoystickAddSensor(ptr noundef %45, i32 noundef 2, float noundef 1.250000e+02)
  %46 = load ptr, ptr %4, align 8
  call void @SDL_PrivateJoystickAddSensor(ptr noundef %46, i32 noundef 1, float noundef 1.250000e+02)
  %47 = load ptr, ptr %5, align 8
  %48 = getelementptr inbounds nuw %struct.SDL_Driver8BitDo_Context, ptr %47, i32 0, i32 12
  store float 0x3F639D0140000000, ptr %48, align 4
  %49 = load ptr, ptr %5, align 8
  %50 = getelementptr inbounds nuw %struct.SDL_Driver8BitDo_Context, ptr %49, i32 0, i32 13
  store float 0x3F51DF6A60000000, ptr %50, align 8
  br label %51

51:                                               ; preds = %44, %35
  call void @llvm.lifetime.end.p0(i64 8, ptr %5) #6
  ret i1 true
}